target datalayout = "e-m:e-p270:32:32-p271:32:32-p272:64:64-i64:64-i128:128-f80:128-n8:16:32:64-S128"
target triple = "x86_64-pc-linux-gnu"

%struct.__sigset_t = type { [16 x i64] }
%struct.stack_t = type { ptr, i32, i64 }
%struct.rb_vm_tag = type { i64, i64, [5 x ptr], ptr, i32, i32 }
%struct.rb_execution_context_struct = type { ptr, i64, ptr, ptr, i32, i32, ptr, ptr, ptr, i64, i64, i64, ptr, i64, ptr, i64, i64, i8, i8, i64, %struct.anon.7 }
%struct.anon.7 = type { ptr, ptr, i64, [1 x %struct.__jmp_buf_tag] }
%struct.__jmp_buf_tag = type { [8 x i64], i32, %struct.__sigset_t }
%struct.siginfo_t = type { i32, i32, i32, i32, %union.anon.20 }
%union.anon.20 = type { %struct.anon.24, [80 x i8] }
%struct.anon.24 = type { i32, i32, i32, i64, i64 }
%struct.anon.25 = type { ptr, i16, %union.anon.26 }
%union.anon.26 = type { %struct.anon.27 }
%struct.anon.27 = type { ptr, ptr }
%struct.ucontext_t = type { i64, ptr, %struct.stack_t, %struct.mcontext_t, %struct.__sigset_t, %struct._libc_fpstate, [4 x i64] }
%struct.mcontext_t = type { [23 x i64], ptr, [8 x i64] }
%struct._libc_fpstate = type { i16, i16, i16, i16, i64, i64, i32, i32, [8 x %struct._libc_fpxreg], [16 x %struct._libc_xmmreg], [24 x i32] }
%struct._libc_fpxreg = type { [4 x i16], i16, [3 x i16] }
%struct._libc_xmmreg = type { [4 x i32] }

@default_sigill_handler = internal global ptr null, align 8
@ruby_current_ec = external thread_local global ptr, align 8
@.str.41 = private unnamed_addr constant [4 x i8] c"ILL\00", align 1
@.str.42 = private unnamed_addr constant [26 x i8] c"Illegal instruction at %p\00", align 1

; Function Attrs: inlinehint nounwind sspstrong uwtable
define internal ptr @rb_current_execution_context(i1 noundef zeroext %0) #5 {
  %2 = alloca i8, align 1
  %3 = alloca ptr, align 8
  %4 = zext i1 %0 to i8
  store i8 %4, ptr %2, align 1, !tbaa !92
  call void @llvm.lifetime.start.p0(i64 8, ptr %3) #22
  %5 = call align 8 ptr @llvm.threadlocal.address.p0(ptr align 8 @ruby_current_ec)
  %6 = load ptr, ptr %5, align 8, !tbaa !56
  store ptr %6, ptr %3, align 8, !tbaa !56
  %7 = load ptr, ptr %3, align 8, !tbaa !56
  call void @llvm.lifetime.end.p0(i64 8, ptr %3) #22
  ret ptr %7
}

; Function Attrs: nounwind sspstrong uwtable
define internal void @check_stack_overflow(i32 noundef %0, i64 noundef %1, ptr noundef %2) #1 {
  %4 = alloca i32, align 4
  %5 = alloca i64, align 8
  %6 = alloca ptr, align 8
  %7 = alloca ptr, align 8
  %8 = alloca i64, align 8
  %9 = alloca i64, align 8
  %10 = alloca i64, align 8
  %11 = alloca i64, align 8
  %12 = alloca i64, align 8
  %13 = alloca ptr, align 8
  %14 = alloca i32, align 4
  %15 = alloca i32, align 4
  store i32 %0, ptr %4, align 4, !tbaa !7
  store i64 %1, ptr %5, align 8, !tbaa !22
  store ptr %2, ptr %6, align 8, !tbaa !118
  call void @llvm.lifetime.start.p0(i64 8, ptr %7) #22
  %16 = load ptr, ptr %6, align 8, !tbaa !118
  %17 = getelementptr inbounds nuw %struct.ucontext_t, ptr %16, i32 0, i32 3
  store ptr %17, ptr %7, align 8, !tbaa !61
  call void @llvm.lifetime.start.p0(i64 8, ptr %8) #22
  %18 = load ptr, ptr %7, align 8, !tbaa !61
  %19 = getelementptr inbounds nuw %struct.mcontext_t, ptr %18, i32 0, i32 0
  %20 = getelementptr [23 x i64], ptr %19, i64 0, i64 15
  %21 = load i64, ptr %20, align 8, !tbaa !120
  store i64 %21, ptr %8, align 8, !tbaa !120
  call void @llvm.lifetime.start.p0(i64 8, ptr %9) #22
  %22 = load ptr, ptr %7, align 8, !tbaa !61
  %23 = getelementptr inbounds nuw %struct.mcontext_t, ptr %22, i32 0, i32 0
  %24 = getelementptr [23 x i64], ptr %23, i64 0, i64 10
  %25 = load i64, ptr %24, align 8, !tbaa !120
  store i64 %25, ptr %9, align 8, !tbaa !120
  call void @llvm.lifetime.start.p0(i64 8, ptr %10) #22
  %26 = load i64, ptr %8, align 8, !tbaa !120
  %27 = udiv i64 %26, 4096
  store i64 %27, ptr %10, align 8, !tbaa !22
  call void @llvm.lifetime.start.p0(i64 8, ptr %11) #22
  %28 = load i64, ptr %9, align 8, !tbaa !120
  %29 = udiv i64 %28, 4096
  store i64 %29, ptr %11, align 8, !tbaa !22
  call void @llvm.lifetime.start.p0(i64 8, ptr %12) #22
  %30 = load i64, ptr %5, align 8, !tbaa !22
  %31 = udiv i64 %30, 4096
  store i64 %31, ptr %12, align 8, !tbaa !22
  %32 = load i64, ptr %10, align 8, !tbaa !22
  %33 = load i64, ptr %12, align 8, !tbaa !22
  %34 = icmp eq i64 %32, %33
  br i1 %34, label %48, label %35

35:                                               ; preds = %3
  %36 = load i64, ptr %10, align 8, !tbaa !22
  %37 = load i64, ptr %12, align 8, !tbaa !22
  %38 = add i64 %37, 1
  %39 = icmp eq i64 %36, %38
  br i1 %39, label %48, label %40

40:                                               ; preds = %35
  %41 = load i64, ptr %10, align 8, !tbaa !22
  %42 = load i64, ptr %12, align 8, !tbaa !22
  %43 = icmp ule i64 %41, %42
  br i1 %43, label %44, label %90

44:                                               ; preds = %40
  %45 = load i64, ptr %12, align 8, !tbaa !22
  %46 = load i64, ptr %11, align 8, !tbaa !22
  %47 = icmp ule i64 %45, %46
  br i1 %47, label %48, label %90

48:                                               ; preds = %44, %35, %3
  call void @llvm.lifetime.start.p0(i64 8, ptr %13) #22
  %49 = call ptr @rb_current_execution_context(i1 noundef zeroext true)
  store ptr %49, ptr %13, align 8, !tbaa !56
  call void @llvm.lifetime.start.p0(i64 4, ptr %14) #22
  store i32 0, ptr %14, align 4, !tbaa !7
  call void @llvm.lifetime.start.p0(i64 4, ptr %15) #22
  store i32 28, ptr %15, align 4, !tbaa !7
  br label %50

50:                                               ; preds = %78, %48
  %51 = load ptr, ptr %13, align 8, !tbaa !56
  %52 = getelementptr inbounds nuw %struct.rb_execution_context_struct, ptr %51, i32 0, i32 3
  %53 = load ptr, ptr %52, align 8, !tbaa !82
  %54 = getelementptr inbounds nuw %struct.rb_vm_tag, ptr %53, i32 0, i32 2
  %55 = getelementptr inbounds [5 x ptr], ptr %54, i64 0, i64 0
  %56 = ptrtoint ptr %55 to i64
  %57 = udiv i64 %56, 4096
  %58 = load i64, ptr %12, align 8, !tbaa !22
  %59 = add i64 %58, 1
  %60 = icmp ule i64 %57, %59
  br i1 %60, label %61, label %86

61:                                               ; preds = %50
  %62 = load ptr, ptr %13, align 8, !tbaa !56
  %63 = getelementptr inbounds nuw %struct.rb_execution_context_struct, ptr %62, i32 0, i32 3
  %64 = load ptr, ptr %63, align 8, !tbaa !82
  %65 = getelementptr inbounds nuw %struct.rb_vm_tag, ptr %64, i32 0, i32 3
  %66 = load ptr, ptr %65, align 8, !tbaa !83
  %67 = icmp ne ptr %66, null
  br i1 %67, label %68, label %73

68:                                               ; preds = %61
  %69 = load i32, ptr %15, align 4, !tbaa !7
  %70 = add i32 %69, -1
  store i32 %70, ptr %15, align 4, !tbaa !7
  %71 = icmp ne i32 %70, 0
  %72 = xor i1 %71, true
  br label %73

73:                                               ; preds = %68, %61
  %74 = phi i1 [ true, %61 ], [ %72, %68 ]
  %75 = zext i1 %74 to i32
  store i32 %75, ptr %14, align 4, !tbaa !7
  %76 = icmp ne i32 %75, 0
  br i1 %76, label %77, label %78

77:                                               ; preds = %73
  br label %86

78:                                               ; preds = %73
  %79 = load ptr, ptr %13, align 8, !tbaa !56
  %80 = getelementptr inbounds nuw %struct.rb_execution_context_struct, ptr %79, i32 0, i32 3
  %81 = load ptr, ptr %80, align 8, !tbaa !82
  %82 = getelementptr inbounds nuw %struct.rb_vm_tag, ptr %81, i32 0, i32 3
  %83 = load ptr, ptr %82, align 8, !tbaa !83
  %84 = load ptr, ptr %13, align 8, !tbaa !56
  %85 = getelementptr inbounds nuw %struct.rb_execution_context_struct, ptr %84, i32 0, i32 3
  store ptr %83, ptr %85, align 8, !tbaa !82
  br label %50, !llvm.loop !121

86:                                               ; preds = %77, %50
  %87 = load i32, ptr %4, align 4, !tbaa !7
  call void @reset_sigmask(i32 noundef %87)
  %88 = load ptr, ptr %13, align 8, !tbaa !56
  %89 = load i32, ptr %14, align 4, !tbaa !7
  call void @rb_ec_stack_overflow(ptr noundef %88, i32 noundef %89) #27
  unreachable

90:                                               ; preds = %44, %40
  call void @llvm.lifetime.end.p0(i64 8, ptr %12) #22
  call void @llvm.lifetime.end.p0(i64 8, ptr %11) #22
  call void @llvm.lifetime.end.p0(i64 8, ptr %10) #22
  call void @llvm.lifetime.end.p0(i64 8, ptr %9) #22
  call void @llvm.lifetime.end.p0(i64 8, ptr %8) #22
  call void @llvm.lifetime.end.p0(i64 8, ptr %7) #22
  ret void
}

; Function Attrs: noreturn nounwind sspstrong uwtable
define internal void @sigill(i32 noundef %0, ptr noundef %1, ptr noundef %2) #12 {
  %4 = alloca i32, align 4
  %5 = alloca ptr, align 8
  %6 = alloca ptr, align 8
  store i32 %0, ptr %4, align 4, !tbaa !7
  store ptr %1, ptr %5, align 8, !tbaa !61
  store ptr %2, ptr %6, align 8, !tbaa !61
  %7 = load i32, ptr %4, align 4, !tbaa !7
  call void @check_reserved_signal_(ptr noundef @.str.41, i64 noundef 3, i32 noundef %7)
  %8 = load ptr, ptr %5, align 8, !tbaa !61
  %9 = getelementptr inbounds nuw %struct.siginfo_t, ptr %8, i32 0, i32 2
  %10 = load i32, ptr %9, align 8, !tbaa !88
  %11 = icmp eq i32 %10, 0
  br i1 %11, label %12, label %13

12:                                               ; preds = %3
  br label %21

13:                                               ; preds = %3
  %14 = load i32, ptr %4, align 4, !tbaa !7
  %15 = load ptr, ptr %5, align 8, !tbaa !61
  %16 = getelementptr inbounds nuw %struct.siginfo_t, ptr %15, i32 0, i32 4
  %17 = getelementptr inbounds nuw %struct.anon.25, ptr %16, i32 0, i32 0
  %18 = load ptr, ptr %17, align 8, !tbaa !51
  %19 = ptrtoint ptr %18 to i64
  %20 = load ptr, ptr %6, align 8, !tbaa !61
  call void @check_stack_overflow(i32 noundef %14, i64 noundef %19, ptr noundef %20)
  br label %21

21:                                               ; preds = %13, %12
  %22 = load ptr, ptr @default_sigill_handler, align 8, !tbaa !61
  %23 = load i32, ptr %4, align 4, !tbaa !7
  %24 = load ptr, ptr %6, align 8, !tbaa !61
  %25 = load ptr, ptr %5, align 8, !tbaa !61
  %26 = getelementptr inbounds nuw %struct.siginfo_t, ptr %25, i32 0, i32 4
  %27 = getelementptr inbounds nuw %struct.anon.25, ptr %26, i32 0, i32 0
  %28 = load ptr, ptr %27, align 8, !tbaa !51
  call void (ptr, i32, ptr, ptr, ...) @rb_bug_for_fatal_signal(ptr noundef %22, i32 noundef %23, ptr noundef %24, ptr noundef @.str.42, ptr noundef %28) #27
  unreachable
}